ARM GAS  C:\Users\ianh\AppData\Local\Temp\ccA7DSK6.s 			page 1


   1              		.syntax unified
   2              		.cpu cortex-m3
   3              		.fpu softvfp
   4              		.eabi_attribute 20, 1
   5              		.eabi_attribute 21, 1
   6              		.eabi_attribute 23, 3
   7              		.eabi_attribute 24, 1
   8              		.eabi_attribute 25, 1
   9              		.eabi_attribute 26, 1
  10              		.eabi_attribute 30, 1
  11              		.eabi_attribute 34, 1
  12              		.eabi_attribute 18, 4
  13              		.thumb
  14              		.syntax unified
  15              		.file	"lcd_functions.c"
  16              		.text
  17              	.Ltext0:
  18              		.cfi_sections	.debug_frame
  19              		.section	.text.initLCD,"ax",%progbits
  20              		.align	2
  21              		.global	initLCD
  22              		.thumb
  23              		.thumb_func
  24              		.type	initLCD, %function
  25              	initLCD:
  26              	.LFB64:
  27              		.file 1 "lcd_functions.c"
   1:lcd_functions.c **** /* ========================================
   2:lcd_functions.c ****  *
   3:lcd_functions.c ****  * Copyright YOUR COMPANY, THE YEAR
   4:lcd_functions.c ****  * All Rights Reserved
   5:lcd_functions.c ****  * UNPUBLISHED, LICENSED SOFTWARE.
   6:lcd_functions.c ****  *
   7:lcd_functions.c ****  * CONFIDENTIAL AND PROPRIETARY INFORMATION
   8:lcd_functions.c ****  * WHICH IS THE PROPERTY OF your company.
   9:lcd_functions.c ****  *
  10:lcd_functions.c ****  * ========================================
  11:lcd_functions.c **** */
  12:lcd_functions.c **** 
  13:lcd_functions.c **** #include "lcd_functions.h"
  14:lcd_functions.c **** #include <stdio.h>
  15:lcd_functions.c **** 
  16:lcd_functions.c **** // Initialize the LCD
  17:lcd_functions.c **** void initLCD() {
  28              		.loc 1 17 0
  29              		.cfi_startproc
  30              		@ args = 0, pretend = 0, frame = 0
  31              		@ frame_needed = 0, uses_anonymous_args = 0
  32 0000 08B5     		push	{r3, lr}
  33              		.cfi_def_cfa_offset 8
  34              		.cfi_offset 3, -8
  35              		.cfi_offset 14, -4
  18:lcd_functions.c ****     LCD_Start();
  36              		.loc 1 18 0
  37 0002 FFF7FEFF 		bl	LCD_Start
  38              	.LVL0:
  19:lcd_functions.c ****     LCD_Position(0,0);
ARM GAS  C:\Users\ianh\AppData\Local\Temp\ccA7DSK6.s 			page 2


  39              		.loc 1 19 0
  40 0006 0021     		movs	r1, #0
  41 0008 0846     		mov	r0, r1
  42 000a FFF7FEFF 		bl	LCD_Position
  43              	.LVL1:
  20:lcd_functions.c ****     LCD_PrintString("Navigate!");
  44              		.loc 1 20 0
  45 000e 0248     		ldr	r0, .L3
  46 0010 FFF7FEFF 		bl	LCD_PrintString
  47              	.LVL2:
  48 0014 08BD     		pop	{r3, pc}
  49              	.L4:
  50 0016 00BF     		.align	2
  51              	.L3:
  52 0018 00000000 		.word	.LC0
  53              		.cfi_endproc
  54              	.LFE64:
  55              		.size	initLCD, .-initLCD
  56              		.section	.text.printLCD,"ax",%progbits
  57              		.align	2
  58              		.global	printLCD
  59              		.thumb
  60              		.thumb_func
  61              		.type	printLCD, %function
  62              	printLCD:
  63              	.LFB65:
  21:lcd_functions.c **** }
  22:lcd_functions.c **** 
  23:lcd_functions.c **** // Print a string to the LCD
  24:lcd_functions.c **** void printLCD(char str[], int line) {
  64              		.loc 1 24 0
  65              		.cfi_startproc
  66              		@ args = 0, pretend = 0, frame = 0
  67              		@ frame_needed = 0, uses_anonymous_args = 0
  68              	.LVL3:
  69 0000 10B5     		push	{r4, lr}
  70              		.cfi_def_cfa_offset 8
  71              		.cfi_offset 4, -8
  72              		.cfi_offset 14, -4
  73 0002 0446     		mov	r4, r0
  25:lcd_functions.c ****     LCD_Position(line,0);
  74              		.loc 1 25 0
  75 0004 C8B2     		uxtb	r0, r1
  76              	.LVL4:
  77 0006 0021     		movs	r1, #0
  78              	.LVL5:
  79 0008 FFF7FEFF 		bl	LCD_Position
  80              	.LVL6:
  26:lcd_functions.c ****     LCD_PrintString(str);
  81              		.loc 1 26 0
  82 000c 2046     		mov	r0, r4
  83 000e FFF7FEFF 		bl	LCD_PrintString
  84              	.LVL7:
  85 0012 10BD     		pop	{r4, pc}
  86              		.cfi_endproc
  87              	.LFE65:
  88              		.size	printLCD, .-printLCD
ARM GAS  C:\Users\ianh\AppData\Local\Temp\ccA7DSK6.s 			page 3


  89              		.section	.text.clearLCD,"ax",%progbits
  90              		.align	2
  91              		.global	clearLCD
  92              		.thumb
  93              		.thumb_func
  94              		.type	clearLCD, %function
  95              	clearLCD:
  96              	.LFB66:
  27:lcd_functions.c **** }
  28:lcd_functions.c **** 
  29:lcd_functions.c **** // Clear the LCD display
  30:lcd_functions.c **** void clearLCD() {
  97              		.loc 1 30 0
  98              		.cfi_startproc
  99              		@ args = 0, pretend = 0, frame = 0
 100              		@ frame_needed = 0, uses_anonymous_args = 0
 101 0000 08B5     		push	{r3, lr}
 102              		.cfi_def_cfa_offset 8
 103              		.cfi_offset 3, -8
 104              		.cfi_offset 14, -4
  31:lcd_functions.c ****     LCD_ClearDisplay();
 105              		.loc 1 31 0
 106 0002 0120     		movs	r0, #1
 107 0004 FFF7FEFF 		bl	LCD_WriteControl
 108              	.LVL8:
 109 0008 08BD     		pop	{r3, pc}
 110              		.cfi_endproc
 111              	.LFE66:
 112              		.size	clearLCD, .-clearLCD
 113 000a 00BF     		.section	.text.printUint32LCD,"ax",%progbits
 114              		.align	2
 115              		.global	printUint32LCD
 116              		.thumb
 117              		.thumb_func
 118              		.type	printUint32LCD, %function
 119              	printUint32LCD:
 120              	.LFB67:
  32:lcd_functions.c **** }
  33:lcd_functions.c **** 
  34:lcd_functions.c **** // Print an integer to the LCD
  35:lcd_functions.c **** void printUint32LCD(uint32 val, int line) {
 121              		.loc 1 35 0
 122              		.cfi_startproc
 123              		@ args = 0, pretend = 0, frame = 16
 124              		@ frame_needed = 0, uses_anonymous_args = 0
 125              	.LVL9:
 126 0000 10B5     		push	{r4, lr}
 127              		.cfi_def_cfa_offset 8
 128              		.cfi_offset 4, -8
 129              		.cfi_offset 14, -4
 130 0002 84B0     		sub	sp, sp, #16
 131              		.cfi_def_cfa_offset 24
 132 0004 0C46     		mov	r4, r1
  36:lcd_functions.c ****     char buf[16];
  37:lcd_functions.c ****     sprintf(buf, "%lu", val);
 133              		.loc 1 37 0
 134 0006 0246     		mov	r2, r0
ARM GAS  C:\Users\ianh\AppData\Local\Temp\ccA7DSK6.s 			page 4


 135 0008 0449     		ldr	r1, .L11
 136              	.LVL10:
 137 000a 6846     		mov	r0, sp
 138              	.LVL11:
 139 000c FFF7FEFF 		bl	sprintf
 140              	.LVL12:
  38:lcd_functions.c ****     printLCD(buf, line);
 141              		.loc 1 38 0
 142 0010 2146     		mov	r1, r4
 143 0012 6846     		mov	r0, sp
 144 0014 FFF7FEFF 		bl	printLCD
 145              	.LVL13:
  39:lcd_functions.c **** }
 146              		.loc 1 39 0
 147 0018 04B0     		add	sp, sp, #16
 148              		.cfi_def_cfa_offset 8
 149              		@ sp needed
 150 001a 10BD     		pop	{r4, pc}
 151              	.LVL14:
 152              	.L12:
 153              		.align	2
 154              	.L11:
 155 001c 0C000000 		.word	.LC1
 156              		.cfi_endproc
 157              	.LFE67:
 158              		.size	printUint32LCD, .-printUint32LCD
 159              		.section	.text.printDoubleLCD,"ax",%progbits
 160              		.align	2
 161              		.global	printDoubleLCD
 162              		.thumb
 163              		.thumb_func
 164              		.type	printDoubleLCD, %function
 165              	printDoubleLCD:
 166              	.LFB68:
  40:lcd_functions.c **** 
  41:lcd_functions.c **** // Print a double to the LCD (unused)
  42:lcd_functions.c **** void printDoubleLCD(double val, int line) {
 167              		.loc 1 42 0
 168              		.cfi_startproc
 169              		@ args = 0, pretend = 0, frame = 16
 170              		@ frame_needed = 0, uses_anonymous_args = 0
 171              	.LVL15:
 172 0000 10B5     		push	{r4, lr}
 173              		.cfi_def_cfa_offset 8
 174              		.cfi_offset 4, -8
 175              		.cfi_offset 14, -4
 176 0002 84B0     		sub	sp, sp, #16
 177              		.cfi_def_cfa_offset 24
 178 0004 1446     		mov	r4, r2
  43:lcd_functions.c ****     char buf[16];
  44:lcd_functions.c ****     sprintf(buf, "%lf", val);
 179              		.loc 1 44 0
 180 0006 0246     		mov	r2, r0
 181              	.LVL16:
 182 0008 0B46     		mov	r3, r1
 183 000a 0549     		ldr	r1, .L15
 184 000c 6846     		mov	r0, sp
ARM GAS  C:\Users\ianh\AppData\Local\Temp\ccA7DSK6.s 			page 5


 185              	.LVL17:
 186 000e FFF7FEFF 		bl	sprintf
 187              	.LVL18:
  45:lcd_functions.c ****     printLCD(buf, line);
 188              		.loc 1 45 0
 189 0012 2146     		mov	r1, r4
 190 0014 6846     		mov	r0, sp
 191 0016 FFF7FEFF 		bl	printLCD
 192              	.LVL19:
  46:lcd_functions.c **** }
 193              		.loc 1 46 0
 194 001a 04B0     		add	sp, sp, #16
 195              		.cfi_def_cfa_offset 8
 196              		@ sp needed
 197 001c 10BD     		pop	{r4, pc}
 198              	.LVL20:
 199              	.L16:
 200 001e 00BF     		.align	2
 201              	.L15:
 202 0020 10000000 		.word	.LC2
 203              		.cfi_endproc
 204              	.LFE68:
 205              		.size	printDoubleLCD, .-printDoubleLCD
 206              		.section	.text.printIntegerLCD,"ax",%progbits
 207              		.align	2
 208              		.global	printIntegerLCD
 209              		.thumb
 210              		.thumb_func
 211              		.type	printIntegerLCD, %function
 212              	printIntegerLCD:
 213              	.LFB69:
  47:lcd_functions.c **** 
  48:lcd_functions.c **** // Print a signed integer to the LCD
  49:lcd_functions.c **** void printIntegerLCD(int val, int line) {
 214              		.loc 1 49 0
 215              		.cfi_startproc
 216              		@ args = 0, pretend = 0, frame = 16
 217              		@ frame_needed = 0, uses_anonymous_args = 0
 218              	.LVL21:
 219 0000 10B5     		push	{r4, lr}
 220              		.cfi_def_cfa_offset 8
 221              		.cfi_offset 4, -8
 222              		.cfi_offset 14, -4
 223 0002 84B0     		sub	sp, sp, #16
 224              		.cfi_def_cfa_offset 24
 225 0004 0C46     		mov	r4, r1
  50:lcd_functions.c ****     char buf[16];
  51:lcd_functions.c ****     sprintf(buf, "%d", val);
 226              		.loc 1 51 0
 227 0006 0246     		mov	r2, r0
 228 0008 0449     		ldr	r1, .L19
 229              	.LVL22:
 230 000a 6846     		mov	r0, sp
 231              	.LVL23:
 232 000c FFF7FEFF 		bl	sprintf
 233              	.LVL24:
  52:lcd_functions.c ****     printLCD(buf, line);
ARM GAS  C:\Users\ianh\AppData\Local\Temp\ccA7DSK6.s 			page 6


 234              		.loc 1 52 0
 235 0010 2146     		mov	r1, r4
 236 0012 6846     		mov	r0, sp
 237 0014 FFF7FEFF 		bl	printLCD
 238              	.LVL25:
  53:lcd_functions.c **** }
 239              		.loc 1 53 0
 240 0018 04B0     		add	sp, sp, #16
 241              		.cfi_def_cfa_offset 8
 242              		@ sp needed
 243 001a 10BD     		pop	{r4, pc}
 244              	.LVL26:
 245              	.L20:
 246              		.align	2
 247              	.L19:
 248 001c 14000000 		.word	.LC3
 249              		.cfi_endproc
 250              	.LFE69:
 251              		.size	printIntegerLCD, .-printIntegerLCD
 252              		.section	.rodata.str1.4,"aMS",%progbits,1
 253              		.align	2
 254              	.LC0:
 255 0000 4E617669 		.ascii	"Navigate!\000"
 255      67617465 
 255      2100
 256 000a 0000     		.space	2
 257              	.LC1:
 258 000c 256C7500 		.ascii	"%lu\000"
 259              	.LC2:
 260 0010 256C6600 		.ascii	"%lf\000"
 261              	.LC3:
 262 0014 256400   		.ascii	"%d\000"
 263              		.text
 264              	.Letext0:
 265              		.file 2 "c:\\program files (x86)\\cypress\\psoc creator\\4.4\\psoc creator\\import\\gnu\\arm\\5.4.
 266              		.file 3 "c:\\program files (x86)\\cypress\\psoc creator\\4.4\\psoc creator\\import\\gnu\\arm\\5.4.
 267              		.file 4 "Generated_Source\\PSoC5/cytypes.h"
 268              		.file 5 "Generated_Source\\PSoC5/LCD.h"
 269              		.file 6 "c:\\program files (x86)\\cypress\\psoc creator\\4.4\\psoc creator\\import\\gnu\\arm\\5.4.
 270              		.file 7 "Generated_Source\\PSoC5/core_cm3.h"