ARM GAS  C:\Users\ianh\AppData\Local\Temp\cclTYTDN.s 			page 1


   1              		.syntax unified
   2              		.cpu cortex-m3
   3              		.fpu softvfp
   4              		.eabi_attribute 20, 1
   5              		.eabi_attribute 21, 1
   6              		.eabi_attribute 23, 3
   7              		.eabi_attribute 24, 1
   8              		.eabi_attribute 25, 1
   9              		.eabi_attribute 26, 1
  10              		.eabi_attribute 30, 1
  11              		.eabi_attribute 34, 1
  12              		.eabi_attribute 18, 4
  13              		.thumb
  14              		.syntax unified
  15              		.file	"main.c"
  16              		.text
  17              	.Ltext0:
  18              		.cfi_sections	.debug_frame
  19              		.global	__aeabi_dadd
  20              		.global	__aeabi_dmul
  21              		.section	.text.frame_int,"ax",%progbits
  22              		.align	2
  23              		.global	frame_int
  24              		.thumb
  25              		.thumb_func
  26              		.type	frame_int, %function
  27              	frame_int:
  28              	.LFB64:
  29              		.file 1 "main.c"
   1:main.c        **** /* ========================================
   2:main.c        ****  *
   3:main.c        ****  * Copyright YOUR COMPANY, THE YEAR
   4:main.c        ****  * All Rights Reserved
   5:main.c        ****  * UNPUBLISHED, LICENSED SOFTWARE.
   6:main.c        ****  *
   7:main.c        ****  * CONFIDENTIAL AND PROPRIETARY INFORMATION
   8:main.c        ****  * WHICH IS THE PROPERTY OF your company.
   9:main.c        ****  *
  10:main.c        ****  * ========================================
  11:main.c        **** */
  12:main.c        **** #include "project.h"
  13:main.c        **** #include "lcd_functions.h"
  14:main.c        **** #include "lp_filter.h"
  15:main.c        **** #include <stdio.h>
  16:main.c        **** 
  17:main.c        **** volatile int numFrames = 0;
  18:main.c        **** 
  19:main.c        **** // Low-pass filter of darkness detector (video)
  20:main.c        **** volatile lpFilter darkFilter50;
  21:main.c        **** volatile lpFilter darkFilter100;
  22:main.c        **** volatile lpFilter darkFilter150;
  23:main.c        **** 
  24:main.c        **** // Low-pass filter of hall effect sensor speed (mrpm)
  25:main.c        **** volatile lpFilter hallFilter;
  26:main.c        **** 
  27:main.c        **** // Last Hall effect sensor time
  28:main.c        **** uint32 lastHallTime = 0-1;
ARM GAS  C:\Users\ianh\AppData\Local\Temp\cclTYTDN.s 			page 2


  29:main.c        **** 
  30:main.c        **** // Average mprm of the DC motor
  31:main.c        **** volatile double avgRpm;
  32:main.c        **** 
  33:main.c        **** // The number of milliseconds before the video detects a dark pixel
  34:main.c        **** volatile double darkTime50;
  35:main.c        **** volatile double darkTime100;
  36:main.c        **** volatile double darkTime150;
  37:main.c        **** volatile double darkTimeOverall = 330.0;
  38:main.c        **** 
  39:main.c        **** // A timeout (if 0.2 seconds pass before a Hall update, clear the rpm)
  40:main.c        **** uint32 timeOutCounter = 0;
  41:main.c        **** 
  42:main.c        **** // Camera frame interrupt
  43:main.c        **** CY_ISR(frame_int) {
  30              		.loc 1 43 0
  31              		.cfi_startproc
  32              		@ args = 0, pretend = 0, frame = 0
  33              		@ frame_needed = 0, uses_anonymous_args = 0
  34 0000 08B5     		push	{r3, lr}
  35              		.cfi_def_cfa_offset 8
  36              		.cfi_offset 3, -8
  37              		.cfi_offset 14, -4
  44:main.c        ****     ++numFrames;
  38              		.loc 1 44 0
  39 0002 0E4A     		ldr	r2, .L3
  40 0004 1368     		ldr	r3, [r2]
  41 0006 0133     		adds	r3, r3, #1
  42 0008 1360     		str	r3, [r2]
  45:main.c        ****     
  46:main.c        ****     darkTimeOverall = (darkTime50 + 2 * darkTime100 + darkTime150) / 4.0;
  43              		.loc 1 46 0
  44 000a 0D4B     		ldr	r3, .L3+4
  45 000c D3E90001 		ldrd	r0, [r3]
  46 0010 0246     		mov	r2, r0
  47 0012 0B46     		mov	r3, r1
  48 0014 FFF7FEFF 		bl	__aeabi_dadd
  49              	.LVL0:
  50 0018 0A4B     		ldr	r3, .L3+8
  51 001a D3E90023 		ldrd	r2, [r3]
  52 001e FFF7FEFF 		bl	__aeabi_dadd
  53              	.LVL1:
  54 0022 094B     		ldr	r3, .L3+12
  55 0024 D3E90023 		ldrd	r2, [r3]
  56 0028 FFF7FEFF 		bl	__aeabi_dadd
  57              	.LVL2:
  58 002c 0022     		movs	r2, #0
  59 002e 074B     		ldr	r3, .L3+16
  60 0030 FFF7FEFF 		bl	__aeabi_dmul
  61              	.LVL3:
  62 0034 064B     		ldr	r3, .L3+20
  63 0036 C3E90001 		strd	r0, [r3]
  64 003a 08BD     		pop	{r3, pc}
  65              	.L4:
  66              		.align	2
  67              	.L3:
  68 003c 00000000 		.word	.LANCHOR0
ARM GAS  C:\Users\ianh\AppData\Local\Temp\cclTYTDN.s 			page 3


  69 0040 00000000 		.word	darkTime100
  70 0044 00000000 		.word	darkTime50
  71 0048 00000000 		.word	darkTime150
  72 004c 0000D03F 		.word	1070596096
  73 0050 00000000 		.word	.LANCHOR1
  74              		.cfi_endproc
  75              	.LFE64:
  76              		.size	frame_int, .-frame_int
  77              		.section	.text.target_int_50,"ax",%progbits
  78              		.align	2
  79              		.global	target_int_50
  80              		.thumb
  81              		.thumb_func
  82              		.type	target_int_50, %function
  83              	target_int_50:
  84              	.LFB65:
  47:main.c        ****     
  48:main.c        ****     //char buf[128];
  49:main.c        ****     //sprintf(buf, "%5d: %5ld %5ld %5ld -> %5ld\r\n", numFrames, (int32)darkTime50, (int32)darkTime
  50:main.c        ****     //XBee_PutString(buf);
  51:main.c        **** }
  52:main.c        **** 
  53:main.c        **** // Target interrupt (line 50)
  54:main.c        **** CY_ISR(target_int_50) {
  85              		.loc 1 54 0
  86              		.cfi_startproc
  87              		@ args = 0, pretend = 0, frame = 0
  88              		@ frame_needed = 0, uses_anonymous_args = 0
  89 0000 08B5     		push	{r3, lr}
  90              		.cfi_def_cfa_offset 8
  91              		.cfi_offset 3, -8
  92              		.cfi_offset 14, -4
  55:main.c        ****     Dark_Timer_50_ReadStatusRegister();
  93              		.loc 1 55 0
  94 0002 FFF7FEFF 		bl	Dark_Timer_50_ReadStatusRegister
  95              	.LVL4:
  96 0006 08BD     		pop	{r3, pc}
  97              		.cfi_endproc
  98              	.LFE65:
  99              		.size	target_int_50, .-target_int_50
 100              		.section	.text.target_int_100,"ax",%progbits
 101              		.align	2
 102              		.global	target_int_100
 103              		.thumb
 104              		.thumb_func
 105              		.type	target_int_100, %function
 106              	target_int_100:
 107              	.LFB66:
  56:main.c        **** }
  57:main.c        **** 
  58:main.c        **** // Target interrupt (line 100)
  59:main.c        **** CY_ISR(target_int_100) {
 108              		.loc 1 59 0
 109              		.cfi_startproc
 110              		@ args = 0, pretend = 0, frame = 0
 111              		@ frame_needed = 0, uses_anonymous_args = 0
 112 0000 08B5     		push	{r3, lr}
ARM GAS  C:\Users\ianh\AppData\Local\Temp\cclTYTDN.s 			page 4


 113              		.cfi_def_cfa_offset 8
 114              		.cfi_offset 3, -8
 115              		.cfi_offset 14, -4
  60:main.c        ****     Dark_Timer_100_ReadStatusRegister();
 116              		.loc 1 60 0
 117 0002 FFF7FEFF 		bl	Dark_Timer_100_ReadStatusRegister
 118              	.LVL5:
 119 0006 08BD     		pop	{r3, pc}
 120              		.cfi_endproc
 121              	.LFE66:
 122              		.size	target_int_100, .-target_int_100
 123              		.section	.text.target_int_150,"ax",%progbits
 124              		.align	2
 125              		.global	target_int_150
 126              		.thumb
 127              		.thumb_func
 128              		.type	target_int_150, %function
 129              	target_int_150:
 130              	.LFB67:
  61:main.c        **** }
  62:main.c        **** 
  63:main.c        **** // Target interrupt (line 150)
  64:main.c        **** CY_ISR(target_int_150) {
 131              		.loc 1 64 0
 132              		.cfi_startproc
 133              		@ args = 0, pretend = 0, frame = 0
 134              		@ frame_needed = 0, uses_anonymous_args = 0
 135 0000 08B5     		push	{r3, lr}
 136              		.cfi_def_cfa_offset 8
 137              		.cfi_offset 3, -8
 138              		.cfi_offset 14, -4
  65:main.c        ****     Dark_Timer_150_ReadStatusRegister();
 139              		.loc 1 65 0
 140 0002 FFF7FEFF 		bl	Dark_Timer_150_ReadStatusRegister
 141              	.LVL6:
 142 0006 08BD     		pop	{r3, pc}
 143              		.cfi_endproc
 144              	.LFE67:
 145              		.size	target_int_150, .-target_int_150
 146              		.global	__aeabi_uldivmod
 147              		.global	__aeabi_ul2d
 148              		.global	__aeabi_ddiv
 149              		.section	.text.hall_int,"ax",%progbits
 150              		.align	2
 151              		.global	hall_int
 152              		.thumb
 153              		.thumb_func
 154              		.type	hall_int, %function
 155              	hall_int:
 156              	.LFB68:
  66:main.c        **** }
  67:main.c        **** 
  68:main.c        **** // Hall sensor interrupt
  69:main.c        **** CY_ISR(hall_int) {
 157              		.loc 1 69 0
 158              		.cfi_startproc
 159              		@ args = 0, pretend = 0, frame = 0
ARM GAS  C:\Users\ianh\AppData\Local\Temp\cclTYTDN.s 			page 5


 160              		@ frame_needed = 0, uses_anonymous_args = 0
 161 0000 10B5     		push	{r4, lr}
 162              		.cfi_def_cfa_offset 8
 163              		.cfi_offset 4, -8
 164              		.cfi_offset 14, -4
  70:main.c        ****     
  71:main.c        ****     // Clear the LCD
  72:main.c        ****     clearLCD();
 165              		.loc 1 72 0
 166 0002 FFF7FEFF 		bl	clearLCD
 167              	.LVL7:
  73:main.c        ****     
  74:main.c        ****     // Keep track of the time since the last Hall Effect Sensor pulse
  75:main.c        ****     uint32 hallTime = Hall_Timer_ReadCapture();
 168              		.loc 1 75 0
 169 0006 FFF7FEFF 		bl	Hall_Timer_ReadCapture
 170              	.LVL8:
  76:main.c        ****     uint32 diffTime = lastHallTime - hallTime;
 171              		.loc 1 76 0
 172 000a 114B     		ldr	r3, .L13+8
 173 000c 9968     		ldr	r1, [r3, #8]
 174              	.LVL9:
  77:main.c        ****     lastHallTime = hallTime;
 175              		.loc 1 77 0
 176 000e 9860     		str	r0, [r3, #8]
  78:main.c        ****     filterPush(&hallFilter, diffTime);
 177              		.loc 1 78 0
 178 0010 104C     		ldr	r4, .L13+12
 179 0012 091A     		subs	r1, r1, r0
 180              	.LVL10:
 181 0014 2046     		mov	r0, r4
 182              	.LVL11:
 183 0016 FFF7FEFF 		bl	filterPush
 184              	.LVL12:
  79:main.c        ****     
  80:main.c        ****     // Average hall effect mrpm
  81:main.c        ****     avgRpm = (double)((uint64) 12000000000 / (uint64) hallFilter.avg) / 1000.0;
 185              		.loc 1 81 0
 186 001a D4F80C22 		ldr	r2, [r4, #524]
 187 001e 0024     		movs	r4, #0
 188 0020 2346     		mov	r3, r4
 189 0022 09A1     		adr	r1, .L13
 190 0024 D1E90001 		ldrd	r0, [r1]
 191 0028 FFF7FEFF 		bl	__aeabi_uldivmod
 192              	.LVL13:
 193 002c FFF7FEFF 		bl	__aeabi_ul2d
 194              	.LVL14:
 195 0030 0022     		movs	r2, #0
 196 0032 094B     		ldr	r3, .L13+16
 197 0034 FFF7FEFF 		bl	__aeabi_ddiv
 198              	.LVL15:
 199 0038 084B     		ldr	r3, .L13+20
 200 003a C3E90001 		strd	r0, [r3]
  82:main.c        ****     
  83:main.c        ****     // Un-capture the hall timer
  84:main.c        ****     Hall_Timer_ReadStatusRegister();
 201              		.loc 1 84 0
ARM GAS  C:\Users\ianh\AppData\Local\Temp\cclTYTDN.s 			page 6


 202 003e FFF7FEFF 		bl	Hall_Timer_ReadStatusRegister
 203              	.LVL16:
  85:main.c        ****     
  86:main.c        ****     // Clear the RPM
  87:main.c        ****     timeOutCounter = 0;
 204              		.loc 1 87 0
 205 0042 074B     		ldr	r3, .L13+24
 206 0044 5C60     		str	r4, [r3, #4]
 207 0046 10BD     		pop	{r4, pc}
 208              	.L14:
 209              		.align	3
 210              	.L13:
 211 0048 007841CB 		.word	-884901888
 212 004c 02000000 		.word	2
 213 0050 00000000 		.word	.LANCHOR1
 214 0054 00000000 		.word	hallFilter
 215 0058 00408F40 		.word	1083129856
 216 005c 00000000 		.word	avgRpm
 217 0060 00000000 		.word	.LANCHOR0
 218              		.cfi_endproc
 219              	.LFE68:
 220              		.size	hall_int, .-hall_int
 221              		.global	__aeabi_ui2d
 222              		.global	__aeabi_dsub
 223              		.global	__aeabi_dcmpgt
 224              		.global	__aeabi_dcmplt
 225              		.section	.text.dark_int_50,"ax",%progbits
 226              		.align	2
 227              		.global	dark_int_50
 228              		.thumb
 229              		.thumb_func
 230              		.type	dark_int_50, %function
 231              	dark_int_50:
 232              	.LFB69:
  88:main.c        **** }
  89:main.c        **** 
  90:main.c        **** // Dark (falling edge of comparator) interrupt - line 50
  91:main.c        **** CY_ISR(dark_int_50) {
 233              		.loc 1 91 0
 234              		.cfi_startproc
 235              		@ args = 0, pretend = 0, frame = 0
 236              		@ frame_needed = 0, uses_anonymous_args = 0
 237 0000 38B5     		push	{r3, r4, r5, lr}
 238              		.cfi_def_cfa_offset 16
 239              		.cfi_offset 3, -16
 240              		.cfi_offset 4, -12
 241              		.cfi_offset 5, -8
 242              		.cfi_offset 14, -4
  92:main.c        ****     
  93:main.c        ****     // Get the elapsed time, and if applicable, send it to the lp filter
  94:main.c        ****     uint32 timeElapsed = 0-1-Dark_Timer_50_ReadCapture();
 243              		.loc 1 94 0
 244 0002 FFF7FEFF 		bl	Dark_Timer_50_ReadCapture
 245              	.LVL17:
 246 0006 C143     		mvns	r1, r0
 247              	.LVL18:
  95:main.c        ****     if (timeElapsed > 630 || timeElapsed < 70) {
ARM GAS  C:\Users\ianh\AppData\Local\Temp\cclTYTDN.s 			page 7


 248              		.loc 1 95 0
 249 0008 A1F14603 		sub	r3, r1, #70
 250 000c B3F50C7F 		cmp	r3, #560
 251 0010 2CD8     		bhi	.L15
  96:main.c        ****         return;
  97:main.c        ****     }
  98:main.c        ****     filterPush(&darkFilter50, timeElapsed);
 252              		.loc 1 98 0
 253 0012 174C     		ldr	r4, .L24
 254 0014 2046     		mov	r0, r4
 255 0016 FFF7FEFF 		bl	filterPush
 256              	.LVL19:
  99:main.c        ****     
 100:main.c        ****     // Center (median) time
 101:main.c        ****     double newDarkTime50 = darkFilter50.median;
 257              		.loc 1 101 0
 258 001a D4F81002 		ldr	r0, [r4, #528]
 259 001e FFF7FEFF 		bl	__aeabi_ui2d
 260              	.LVL20:
 261 0022 0446     		mov	r4, r0
 262 0024 0D46     		mov	r5, r1
 263              	.LVL21:
 102:main.c        ****     
 103:main.c        ****     if (newDarkTime50 > darkTime50 - 600) {
 264              		.loc 1 103 0
 265 0026 0022     		movs	r2, #0
 266 0028 124B     		ldr	r3, .L24+4
 267 002a 1349     		ldr	r1, .L24+8
 268 002c D1E90001 		ldrd	r0, [r1]
 269 0030 FFF7FEFF 		bl	__aeabi_dsub
 270              	.LVL22:
 271 0034 0246     		mov	r2, r0
 272 0036 0B46     		mov	r3, r1
 273 0038 2046     		mov	r0, r4
 274 003a 2946     		mov	r1, r5
 275 003c FFF7FEFF 		bl	__aeabi_dcmpgt
 276              	.LVL23:
 277 0040 18B1     		cbz	r0, .L22
 104:main.c        ****         darkTime50 = newDarkTime50;
 278              		.loc 1 104 0
 279 0042 0D4B     		ldr	r3, .L24+8
 280 0044 C3E90045 		strd	r4, [r3]
 281 0048 38BD     		pop	{r3, r4, r5, pc}
 282              	.LVL24:
 283              	.L22:
 105:main.c        ****     } else if (newDarkTime50 < darkTime50 + 600) {
 284              		.loc 1 105 0
 285 004a 0022     		movs	r2, #0
 286 004c 094B     		ldr	r3, .L24+4
 287 004e 0A49     		ldr	r1, .L24+8
 288 0050 D1E90001 		ldrd	r0, [r1]
 289 0054 FFF7FEFF 		bl	__aeabi_dadd
 290              	.LVL25:
 291 0058 0246     		mov	r2, r0
 292 005a 0B46     		mov	r3, r1
 293 005c 2046     		mov	r0, r4
 294 005e 2946     		mov	r1, r5
ARM GAS  C:\Users\ianh\AppData\Local\Temp\cclTYTDN.s 			page 8


 295 0060 FFF7FEFF 		bl	__aeabi_dcmplt
 296              	.LVL26:
 297 0064 10B1     		cbz	r0, .L15
 106:main.c        ****         darkTime50 = newDarkTime50;
 298              		.loc 1 106 0
 299 0066 044B     		ldr	r3, .L24+8
 300 0068 C3E90045 		strd	r4, [r3]
 301              	.LVL27:
 302              	.L15:
 303 006c 38BD     		pop	{r3, r4, r5, pc}
 304              	.L25:
 305 006e 00BF     		.align	2
 306              	.L24:
 307 0070 00000000 		.word	darkFilter50
 308 0074 00C08240 		.word	1082310656
 309 0078 00000000 		.word	darkTime50
 310              		.cfi_endproc
 311              	.LFE69:
 312              		.size	dark_int_50, .-dark_int_50
 313              		.section	.text.dark_int_100,"ax",%progbits
 314              		.align	2
 315              		.global	dark_int_100
 316              		.thumb
 317              		.thumb_func
 318              		.type	dark_int_100, %function
 319              	dark_int_100:
 320              	.LFB70:
 107:main.c        ****     }
 108:main.c        **** }
 109:main.c        **** 
 110:main.c        **** // Dark (falling edge of comparator) interrupt - line 100
 111:main.c        **** CY_ISR(dark_int_100) {
 321              		.loc 1 111 0
 322              		.cfi_startproc
 323              		@ args = 0, pretend = 0, frame = 0
 324              		@ frame_needed = 0, uses_anonymous_args = 0
 325 0000 38B5     		push	{r3, r4, r5, lr}
 326              		.cfi_def_cfa_offset 16
 327              		.cfi_offset 3, -16
 328              		.cfi_offset 4, -12
 329              		.cfi_offset 5, -8
 330              		.cfi_offset 14, -4
 112:main.c        ****     
 113:main.c        ****     // Get the elapsed time, and if applicable, send it to the lp filter
 114:main.c        ****     uint32 timeElapsed = 0-1-Dark_Timer_100_ReadCapture();
 331              		.loc 1 114 0
 332 0002 FFF7FEFF 		bl	Dark_Timer_100_ReadCapture
 333              	.LVL28:
 334 0006 C143     		mvns	r1, r0
 335              	.LVL29:
 115:main.c        ****     if (timeElapsed > 630 || timeElapsed < 70) {
 336              		.loc 1 115 0
 337 0008 A1F14603 		sub	r3, r1, #70
 338 000c B3F50C7F 		cmp	r3, #560
 339 0010 2CD8     		bhi	.L26
 116:main.c        ****         return;
 117:main.c        ****     }
ARM GAS  C:\Users\ianh\AppData\Local\Temp\cclTYTDN.s 			page 9


 118:main.c        ****     filterPush(&darkFilter100, timeElapsed);
 340              		.loc 1 118 0
 341 0012 174C     		ldr	r4, .L35
 342 0014 2046     		mov	r0, r4
 343 0016 FFF7FEFF 		bl	filterPush
 344              	.LVL30:
 119:main.c        ****     
 120:main.c        ****     // Center (median) time
 121:main.c        ****     double newDarkTime100 = darkFilter100.median;
 345              		.loc 1 121 0
 346 001a D4F81002 		ldr	r0, [r4, #528]
 347 001e FFF7FEFF 		bl	__aeabi_ui2d
 348              	.LVL31:
 349 0022 0446     		mov	r4, r0
 350 0024 0D46     		mov	r5, r1
 351              	.LVL32:
 122:main.c        ****     
 123:main.c        ****     if (newDarkTime100 > darkTime100 - 600) {
 352              		.loc 1 123 0
 353 0026 0022     		movs	r2, #0
 354 0028 124B     		ldr	r3, .L35+4
 355 002a 1349     		ldr	r1, .L35+8
 356 002c D1E90001 		ldrd	r0, [r1]
 357 0030 FFF7FEFF 		bl	__aeabi_dsub
 358              	.LVL33:
 359 0034 0246     		mov	r2, r0
 360 0036 0B46     		mov	r3, r1
 361 0038 2046     		mov	r0, r4
 362 003a 2946     		mov	r1, r5
 363 003c FFF7FEFF 		bl	__aeabi_dcmpgt
 364              	.LVL34:
 365 0040 18B1     		cbz	r0, .L33
 124:main.c        ****         darkTime100 = newDarkTime100;
 366              		.loc 1 124 0
 367 0042 0D4B     		ldr	r3, .L35+8
 368 0044 C3E90045 		strd	r4, [r3]
 369 0048 38BD     		pop	{r3, r4, r5, pc}
 370              	.LVL35:
 371              	.L33:
 125:main.c        ****     } else if (newDarkTime100 < darkTime100 + 600) {
 372              		.loc 1 125 0
 373 004a 0022     		movs	r2, #0
 374 004c 094B     		ldr	r3, .L35+4
 375 004e 0A49     		ldr	r1, .L35+8
 376 0050 D1E90001 		ldrd	r0, [r1]
 377 0054 FFF7FEFF 		bl	__aeabi_dadd
 378              	.LVL36:
 379 0058 0246     		mov	r2, r0
 380 005a 0B46     		mov	r3, r1
 381 005c 2046     		mov	r0, r4
 382 005e 2946     		mov	r1, r5
 383 0060 FFF7FEFF 		bl	__aeabi_dcmplt
 384              	.LVL37:
 385 0064 10B1     		cbz	r0, .L26
 126:main.c        ****         darkTime100 = newDarkTime100;
 386              		.loc 1 126 0
 387 0066 044B     		ldr	r3, .L35+8
ARM GAS  C:\Users\ianh\AppData\Local\Temp\cclTYTDN.s 			page 10


 388 0068 C3E90045 		strd	r4, [r3]
 389              	.LVL38:
 390              	.L26:
 391 006c 38BD     		pop	{r3, r4, r5, pc}
 392              	.L36:
 393 006e 00BF     		.align	2
 394              	.L35:
 395 0070 00000000 		.word	darkFilter100
 396 0074 00C08240 		.word	1082310656
 397 0078 00000000 		.word	darkTime100
 398              		.cfi_endproc
 399              	.LFE70:
 400              		.size	dark_int_100, .-dark_int_100
 401              		.section	.text.dark_int_150,"ax",%progbits
 402              		.align	2
 403              		.global	dark_int_150
 404              		.thumb
 405              		.thumb_func
 406              		.type	dark_int_150, %function
 407              	dark_int_150:
 408              	.LFB71:
 127:main.c        ****     }
 128:main.c        **** }
 129:main.c        **** 
 130:main.c        **** // Dark (falling edge of comparator) interrupt - line 150
 131:main.c        **** CY_ISR(dark_int_150) {
 409              		.loc 1 131 0
 410              		.cfi_startproc
 411              		@ args = 0, pretend = 0, frame = 0
 412              		@ frame_needed = 0, uses_anonymous_args = 0
 413 0000 38B5     		push	{r3, r4, r5, lr}
 414              		.cfi_def_cfa_offset 16
 415              		.cfi_offset 3, -16
 416              		.cfi_offset 4, -12
 417              		.cfi_offset 5, -8
 418              		.cfi_offset 14, -4
 132:main.c        ****     
 133:main.c        ****     // Get the elapsed time, and if applicable, send it to the lp filter
 134:main.c        ****     uint32 timeElapsed = 0-1-Dark_Timer_150_ReadCapture();
 419              		.loc 1 134 0
 420 0002 FFF7FEFF 		bl	Dark_Timer_150_ReadCapture
 421              	.LVL39:
 422 0006 C143     		mvns	r1, r0
 423              	.LVL40:
 135:main.c        ****     if (timeElapsed > 630 || timeElapsed < 70) {
 424              		.loc 1 135 0
 425 0008 A1F14603 		sub	r3, r1, #70
 426 000c B3F50C7F 		cmp	r3, #560
 427 0010 2CD8     		bhi	.L37
 136:main.c        ****         return;
 137:main.c        ****     }
 138:main.c        ****     filterPush(&darkFilter150, timeElapsed);
 428              		.loc 1 138 0
 429 0012 174C     		ldr	r4, .L46
 430 0014 2046     		mov	r0, r4
 431 0016 FFF7FEFF 		bl	filterPush
 432              	.LVL41:
ARM GAS  C:\Users\ianh\AppData\Local\Temp\cclTYTDN.s 			page 11


 139:main.c        ****     
 140:main.c        ****     // Center (median) time
 141:main.c        ****     double newDarkTime150 = darkFilter150.median;
 433              		.loc 1 141 0
 434 001a D4F81002 		ldr	r0, [r4, #528]
 435 001e FFF7FEFF 		bl	__aeabi_ui2d
 436              	.LVL42:
 437 0022 0446     		mov	r4, r0
 438 0024 0D46     		mov	r5, r1
 439              	.LVL43:
 142:main.c        ****     
 143:main.c        ****     if (newDarkTime150 > darkTime150 - 600) {
 440              		.loc 1 143 0
 441 0026 0022     		movs	r2, #0
 442 0028 124B     		ldr	r3, .L46+4
 443 002a 1349     		ldr	r1, .L46+8
 444 002c D1E90001 		ldrd	r0, [r1]
 445 0030 FFF7FEFF 		bl	__aeabi_dsub
 446              	.LVL44:
 447 0034 0246     		mov	r2, r0
 448 0036 0B46     		mov	r3, r1
 449 0038 2046     		mov	r0, r4
 450 003a 2946     		mov	r1, r5
 451 003c FFF7FEFF 		bl	__aeabi_dcmpgt
 452              	.LVL45:
 453 0040 18B1     		cbz	r0, .L44
 144:main.c        ****         darkTime150 = newDarkTime150;
 454              		.loc 1 144 0
 455 0042 0D4B     		ldr	r3, .L46+8
 456 0044 C3E90045 		strd	r4, [r3]
 457 0048 38BD     		pop	{r3, r4, r5, pc}
 458              	.LVL46:
 459              	.L44:
 145:main.c        ****     } else if (newDarkTime150 < darkTime150 + 600) {
 460              		.loc 1 145 0
 461 004a 0022     		movs	r2, #0
 462 004c 094B     		ldr	r3, .L46+4
 463 004e 0A49     		ldr	r1, .L46+8
 464 0050 D1E90001 		ldrd	r0, [r1]
 465 0054 FFF7FEFF 		bl	__aeabi_dadd
 466              	.LVL47:
 467 0058 0246     		mov	r2, r0
 468 005a 0B46     		mov	r3, r1
 469 005c 2046     		mov	r0, r4
 470 005e 2946     		mov	r1, r5
 471 0060 FFF7FEFF 		bl	__aeabi_dcmplt
 472              	.LVL48:
 473 0064 10B1     		cbz	r0, .L37
 146:main.c        ****         darkTime150 = newDarkTime150;
 474              		.loc 1 146 0
 475 0066 044B     		ldr	r3, .L46+8
 476 0068 C3E90045 		strd	r4, [r3]
 477              	.LVL49:
 478              	.L37:
 479 006c 38BD     		pop	{r3, r4, r5, pc}
 480              	.L47:
 481 006e 00BF     		.align	2
ARM GAS  C:\Users\ianh\AppData\Local\Temp\cclTYTDN.s 			page 12


 482              	.L46:
 483 0070 00000000 		.word	darkFilter150
 484 0074 00C08240 		.word	1082310656
 485 0078 00000000 		.word	darkTime150
 486              		.cfi_endproc
 487              	.LFE71:
 488              		.size	dark_int_150, .-dark_int_150
 489              		.global	__aeabi_d2uiz
 490              		.global	__aeabi_d2iz
 491              		.global	__aeabi_i2d
 492              		.section	.text.pid_int,"ax",%progbits
 493              		.align	2
 494              		.global	pid_int
 495              		.thumb
 496              		.thumb_func
 497              		.type	pid_int, %function
 498              	pid_int:
 499              	.LFB72:
 147:main.c        ****     }
 148:main.c        **** }
 149:main.c        **** 
 150:main.c        **** // PID (speed) last
 151:main.c        **** double lastErr_speed = 0.0;
 152:main.c        **** 
 153:main.c        **** // PID (speed) sum
 154:main.c        **** double sumErr_speed = 0.0;
 155:main.c        **** 
 156:main.c        **** // Goal (speed) rpm
 157:main.c        **** double goalRpm = 420.0;
 158:main.c        **** 
 159:main.c        **** // PID constants (speed)
 160:main.c        **** double kp_speed = 2.00;
 161:main.c        **** double ki_speed = 2.00;// 0.30;
 162:main.c        **** double kd_speed = 0.00;
 163:main.c        **** 
 164:main.c        **** // PID (steering) last
 165:main.c        **** double lastErr_steer = 0.0;
 166:main.c        **** 
 167:main.c        **** // PID (steering) sum
 168:main.c        **** double sumErr_steer = 0.0;
 169:main.c        **** 
 170:main.c        **** // Goal (speed) rpm
 171:main.c        **** double goalDarkTime = 330.0;
 172:main.c        **** 
 173:main.c        **** // PID constants (steering)
 174:main.c        **** double kp_steer = 1.12;
 175:main.c        **** double ki_steer = 0.0;
 176:main.c        **** double kd_steer = 0.06;
 177:main.c        **** 
 178:main.c        **** // PID period (sec)
 179:main.c        **** double pid_period = 0.020;
 180:main.c        **** double cubicProportional_steer;
 181:main.c        **** 
 182:main.c        **** // PID ISR (every 20 msec)
 183:main.c        **** CY_ISR(pid_int) {
 500              		.loc 1 183 0
 501              		.cfi_startproc
ARM GAS  C:\Users\ianh\AppData\Local\Temp\cclTYTDN.s 			page 13


 502              		@ args = 0, pretend = 0, frame = 16
 503              		@ frame_needed = 0, uses_anonymous_args = 0
 504 0000 2DE9F04F 		push	{r4, r5, r6, r7, r8, r9, r10, fp, lr}
 505              		.cfi_def_cfa_offset 36
 506              		.cfi_offset 4, -36
 507              		.cfi_offset 5, -32
 508              		.cfi_offset 6, -28
 509              		.cfi_offset 7, -24
 510              		.cfi_offset 8, -20
 511              		.cfi_offset 9, -16
 512              		.cfi_offset 10, -12
 513              		.cfi_offset 11, -8
 514              		.cfi_offset 14, -4
 515 0004 85B0     		sub	sp, sp, #20
 516              		.cfi_def_cfa_offset 56
 184:main.c        ****     
 185:main.c        ****     // Time out counter increment
 186:main.c        ****     timeOutCounter++;
 517              		.loc 1 186 0
 518 0006 8A4A     		ldr	r2, .L72+32
 519 0008 5368     		ldr	r3, [r2, #4]
 520 000a 0133     		adds	r3, r3, #1
 521 000c 5360     		str	r3, [r2, #4]
 187:main.c        ****     if (timeOutCounter >= 10) {
 522              		.loc 1 187 0
 523 000e 092B     		cmp	r3, #9
 524 0010 04D9     		bls	.L49
 188:main.c        ****         avgRpm = 0;
 525              		.loc 1 188 0
 526 0012 0020     		movs	r0, #0
 527 0014 0021     		movs	r1, #0
 528 0016 874B     		ldr	r3, .L72+36
 529 0018 C3E90001 		strd	r0, [r3]
 530              	.L49:
 189:main.c        ****     }
 190:main.c        ****     
 191:main.c        ****     // Calculate the current speed error
 192:main.c        ****     double currErr_speed = goalRpm - avgRpm;
 531              		.loc 1 192 0
 532 001c 864C     		ldr	r4, .L72+40
 533 001e D4E90467 		ldrd	r6, [r4, #16]
 534 0022 844B     		ldr	r3, .L72+36
 535 0024 D3E90023 		ldrd	r2, [r3]
 536 0028 3046     		mov	r0, r6
 537 002a 3946     		mov	r1, r7
 538 002c FFF7FEFF 		bl	__aeabi_dsub
 539              	.LVL50:
 540 0030 8246     		mov	r10, r0
 541 0032 8B46     		mov	fp, r1
 542              	.LVL51:
 193:main.c        ****     
 194:main.c        ****     // Integral calculation (and windup protection)
 195:main.c        ****     sumErr_speed += currErr_speed;
 543              		.loc 1 195 0
 544 0034 7E4D     		ldr	r5, .L72+32
 545 0036 D5E90223 		ldrd	r2, [r5, #8]
 546 003a FFF7FEFF 		bl	__aeabi_dadd
ARM GAS  C:\Users\ianh\AppData\Local\Temp\cclTYTDN.s 			page 14


 547              	.LVL52:
 548 003e C5E90201 		strd	r0, [r5, #8]
 196:main.c        ****     double integralTerm_speed = (ki_speed * sumErr_speed * pid_period);
 549              		.loc 1 196 0
 550 0042 D4E90623 		ldrd	r2, [r4, #24]
 551 0046 FFF7FEFF 		bl	__aeabi_dmul
 552              	.LVL53:
 553 004a D4E90889 		ldrd	r8, [r4, #32]
 554 004e 4246     		mov	r2, r8
 555 0050 4B46     		mov	r3, r9
 556 0052 FFF7FEFF 		bl	__aeabi_dmul
 557              	.LVL54:
 558 0056 0446     		mov	r4, r0
 559 0058 0D46     		mov	r5, r1
 560 005a CDE90045 		strd	r4, [sp]
 561              	.LVL55:
 197:main.c        ****     if (integralTerm_speed > 1024) {
 562              		.loc 1 197 0
 563 005e 0022     		movs	r2, #0
 564 0060 764B     		ldr	r3, .L72+44
 565 0062 FFF7FEFF 		bl	__aeabi_dcmpgt
 566              	.LVL56:
 567 0066 38B9     		cbnz	r0, .L60
 198:main.c        ****         integralTerm_speed = 1024;
 199:main.c        ****     } else if (integralTerm_speed < -1024) {
 568              		.loc 1 199 0
 569 0068 0022     		movs	r2, #0
 570 006a 754B     		ldr	r3, .L72+48
 571 006c 2046     		mov	r0, r4
 572 006e 2946     		mov	r1, r5
 573 0070 FFF7FEFF 		bl	__aeabi_dcmplt
 574              	.LVL57:
 575 0074 28B9     		cbnz	r0, .L61
 576 0076 08E0     		b	.L50
 577              	.L60:
 198:main.c        ****         integralTerm_speed = 1024;
 578              		.loc 1 198 0
 579 0078 0023     		movs	r3, #0
 580 007a 704C     		ldr	r4, .L72+44
 581              	.LVL58:
 582 007c CDE90034 		strd	r3, [sp]
 583              	.LVL59:
 584 0080 03E0     		b	.L50
 585              	.LVL60:
 586              	.L61:
 200:main.c        ****         integralTerm_speed = -1024;
 587              		.loc 1 200 0
 588 0082 0023     		movs	r3, #0
 589 0084 6E4C     		ldr	r4, .L72+48
 590              	.LVL61:
 591 0086 CDE90034 		strd	r3, [sp]
 592              	.LVL62:
 593              	.L50:
 201:main.c        ****     }
 202:main.c        ****     
 203:main.c        ****     // Proportional calculation
 204:main.c        ****     double proportionalTerm_speed = (kp_speed * currErr_speed);
ARM GAS  C:\Users\ianh\AppData\Local\Temp\cclTYTDN.s 			page 15


 594              		.loc 1 204 0
 595 008a 6B4B     		ldr	r3, .L72+40
 596 008c D3E90A23 		ldrd	r2, [r3, #40]
 597 0090 5046     		mov	r0, r10
 598 0092 5946     		mov	r1, fp
 599 0094 FFF7FEFF 		bl	__aeabi_dmul
 600              	.LVL63:
 601 0098 CDE90201 		strd	r0, [sp, #8]
 602              	.LVL64:
 205:main.c        ****     
 206:main.c        ****     // Derivative calculation
 207:main.c        ****     double derivativeTerm_speed = (kd_speed * (currErr_speed - lastErr_speed) / pid_period);
 603              		.loc 1 207 0
 604 009c 644C     		ldr	r4, .L72+32
 605 009e D4E90423 		ldrd	r2, [r4, #16]
 606 00a2 5046     		mov	r0, r10
 607              	.LVL65:
 608 00a4 5946     		mov	r1, fp
 609 00a6 FFF7FEFF 		bl	__aeabi_dsub
 610              	.LVL66:
 611 00aa D4E90623 		ldrd	r2, [r4, #24]
 612 00ae FFF7FEFF 		bl	__aeabi_dmul
 613              	.LVL67:
 614 00b2 4246     		mov	r2, r8
 615 00b4 4B46     		mov	r3, r9
 616 00b6 FFF7FEFF 		bl	__aeabi_ddiv
 617              	.LVL68:
 618 00ba 8046     		mov	r8, r0
 619 00bc 8946     		mov	r9, r1
 620              	.LVL69:
 208:main.c        ****     
 209:main.c        ****     // PID sum
 210:main.c        ****     double pidOutput_speed = (uint32)(1.8 * goalRpm + proportionalTerm_speed + integralTerm_speed +
 621              		.loc 1 210 0
 622 00be 54A3     		adr	r3, .L72
 623 00c0 D3E90023 		ldrd	r2, [r3]
 624 00c4 3046     		mov	r0, r6
 625 00c6 3946     		mov	r1, r7
 626 00c8 FFF7FEFF 		bl	__aeabi_dmul
 627              	.LVL70:
 628 00cc 0246     		mov	r2, r0
 629 00ce 0B46     		mov	r3, r1
 630 00d0 DDE90201 		ldrd	r0, [sp, #8]
 631 00d4 FFF7FEFF 		bl	__aeabi_dadd
 632              	.LVL71:
 633 00d8 0246     		mov	r2, r0
 634 00da 0B46     		mov	r3, r1
 635 00dc DDE90001 		ldrd	r0, [sp]
 636 00e0 FFF7FEFF 		bl	__aeabi_dadd
 637              	.LVL72:
 638 00e4 0246     		mov	r2, r0
 639 00e6 0B46     		mov	r3, r1
 640 00e8 4046     		mov	r0, r8
 641 00ea 4946     		mov	r1, r9
 642 00ec FFF7FEFF 		bl	__aeabi_dadd
 643              	.LVL73:
 644 00f0 FFF7FEFF 		bl	__aeabi_d2uiz
ARM GAS  C:\Users\ianh\AppData\Local\Temp\cclTYTDN.s 			page 16


 645              	.LVL74:
 646 00f4 FFF7FEFF 		bl	__aeabi_ui2d
 647              	.LVL75:
 648 00f8 0646     		mov	r6, r0
 649 00fa 0F46     		mov	r7, r1
 650              	.LVL76:
 211:main.c        ****     
 212:main.c        ****     // Store the previous error
 213:main.c        ****     lastErr_speed = currErr_speed;
 651              		.loc 1 213 0
 652 00fc C4E904AB 		strd	r10, [r4, #16]
 214:main.c        ****     
 215:main.c        ****     // Bound the PID output
 216:main.c        ****     if (pidOutput_speed < 0) {
 217:main.c        ****         pidOutput_speed = 0;
 218:main.c        ****     } else if (pidOutput_speed > 4095) {
 653              		.loc 1 218 0
 654 0100 45A3     		adr	r3, .L72+8
 655 0102 D3E90023 		ldrd	r2, [r3]
 656 0106 FFF7FEFF 		bl	__aeabi_dcmpgt
 657              	.LVL77:
 658 010a 10B1     		cbz	r0, .L51
 219:main.c        ****         pidOutput_speed = 4095;
 659              		.loc 1 219 0
 660 010c 42A7     		adr	r7, .L72+8
 661 010e D7E90067 		ldrd	r6, [r7]
 662              	.LVL78:
 663              	.L51:
 220:main.c        ****     }
 221:main.c        ****     
 222:main.c        ****     // Update the speed as a result of the PID
 223:main.c        ****     Throttle_PWM_WriteCompare((uint16)pidOutput_speed);
 664              		.loc 1 223 0
 665 0112 3046     		mov	r0, r6
 666 0114 3946     		mov	r1, r7
 667 0116 FFF7FEFF 		bl	__aeabi_d2uiz
 668              	.LVL79:
 669 011a 80B2     		uxth	r0, r0
 670 011c FFF7FEFF 		bl	Throttle_PWM_WriteCompare
 671              	.LVL80:
 224:main.c        ****     
 225:main.c        ****     // Print to show the ISR has been triggered and the PID has been calculated
 226:main.c        ****     //char buf[128];
 227:main.c        ****     //sprintf(buf, "%10ld %10u %10ld\r\n", (int32)avgRpm, (uint16)pidOutput_speed, (int32)integralT
 228:main.c        ****     //XBee_PutString(buf);
 229:main.c        ****     
 230:main.c        ****     // Calculate the current steering error
 231:main.c        ****     double currErr_steer = (darkTimeOverall - goalDarkTime);
 672              		.loc 1 231 0
 673 0120 454E     		ldr	r6, .L72+40
 674              	.LVL81:
 675 0122 D6E90C23 		ldrd	r2, [r6, #48]
 676 0126 D6E90001 		ldrd	r0, [r6]
 677 012a FFF7FEFF 		bl	__aeabi_dsub
 678              	.LVL82:
 679 012e 0446     		mov	r4, r0
 680 0130 0D46     		mov	r5, r1
ARM GAS  C:\Users\ianh\AppData\Local\Temp\cclTYTDN.s 			page 17


 681              	.LVL83:
 232:main.c        ****     
 233:main.c        ****     // Integral calculation (and windup protection)
 234:main.c        ****     sumErr_steer += currErr_steer;
 682              		.loc 1 234 0
 683 0132 3F4F     		ldr	r7, .L72+32
 684 0134 D7E90823 		ldrd	r2, [r7, #32]
 685 0138 FFF7FEFF 		bl	__aeabi_dadd
 686              	.LVL84:
 687 013c C7E90801 		strd	r0, [r7, #32]
 235:main.c        ****     double integralTerm_steer = (ki_steer * sumErr_steer * pid_period);
 688              		.loc 1 235 0
 689 0140 D7E90A23 		ldrd	r2, [r7, #40]
 690 0144 FFF7FEFF 		bl	__aeabi_dmul
 691              	.LVL85:
 692 0148 D6E90889 		ldrd	r8, [r6, #32]
 693              	.LVL86:
 694 014c 4246     		mov	r2, r8
 695 014e 4B46     		mov	r3, r9
 696 0150 FFF7FEFF 		bl	__aeabi_dmul
 697              	.LVL87:
 698 0154 0646     		mov	r6, r0
 699 0156 0F46     		mov	r7, r1
 700              	.LVL88:
 236:main.c        ****     if (integralTerm_steer > 500) {
 701              		.loc 1 236 0
 702 0158 0022     		movs	r2, #0
 703 015a 3A4B     		ldr	r3, .L72+52
 704 015c FFF7FEFF 		bl	__aeabi_dcmpgt
 705              	.LVL89:
 706 0160 40B9     		cbnz	r0, .L63
 237:main.c        ****         integralTerm_steer = 500;
 238:main.c        ****     } else if (integralTerm_steer < -500) {
 707              		.loc 1 238 0
 708 0162 2FA3     		adr	r3, .L72+16
 709 0164 D3E90023 		ldrd	r2, [r3]
 710 0168 3046     		mov	r0, r6
 711 016a 3946     		mov	r1, r7
 712 016c FFF7FEFF 		bl	__aeabi_dcmplt
 713              	.LVL90:
 714 0170 18B9     		cbnz	r0, .L64
 715 0172 05E0     		b	.L52
 716              	.L63:
 237:main.c        ****         integralTerm_steer = 500;
 717              		.loc 1 237 0
 718 0174 0026     		movs	r6, #0
 719              	.LVL91:
 720 0176 334F     		ldr	r7, .L72+52
 721 0178 02E0     		b	.L52
 722              	.LVL92:
 723              	.L64:
 239:main.c        ****         integralTerm_steer = -500;
 724              		.loc 1 239 0
 725 017a 29A7     		adr	r7, .L72+16
 726 017c D7E90067 		ldrd	r6, [r7]
 727              	.LVL93:
 728              	.L52:
ARM GAS  C:\Users\ianh\AppData\Local\Temp\cclTYTDN.s 			page 18


 240:main.c        ****     }
 241:main.c        ****     
 242:main.c        ****     // Proportional calculation
 243:main.c        ****     double proportionalTerm_steer = (kp_steer * currErr_steer);
 729              		.loc 1 243 0
 730 0180 DFF8B4A0 		ldr	r10, .L72+40
 731              	.LVL94:
 732 0184 DAE90E23 		ldrd	r2, [r10, #56]
 733 0188 2046     		mov	r0, r4
 734 018a 2946     		mov	r1, r5
 735 018c FFF7FEFF 		bl	__aeabi_dmul
 736              	.LVL95:
 737 0190 CDE90001 		strd	r0, [sp]
 738              	.LVL96:
 244:main.c        **** 
 245:main.c        ****     // Derivative calculation
 246:main.c        ****     double derivativeTerm_steer = (kd_steer * (currErr_steer - lastErr_steer) / pid_period);
 739              		.loc 1 246 0
 740 0194 264B     		ldr	r3, .L72+32
 741 0196 D3E90C23 		ldrd	r2, [r3, #48]
 742 019a 2046     		mov	r0, r4
 743              	.LVL97:
 744 019c 2946     		mov	r1, r5
 745 019e FFF7FEFF 		bl	__aeabi_dsub
 746              	.LVL98:
 747 01a2 DAE91023 		ldrd	r2, [r10, #64]
 748 01a6 FFF7FEFF 		bl	__aeabi_dmul
 749              	.LVL99:
 750 01aa 4246     		mov	r2, r8
 751 01ac 4B46     		mov	r3, r9
 752 01ae FFF7FEFF 		bl	__aeabi_ddiv
 753              	.LVL100:
 754 01b2 8046     		mov	r8, r0
 755 01b4 8946     		mov	r9, r1
 756              	.LVL101:
 247:main.c        ****     
 248:main.c        ****     // PID sum
 249:main.c        ****     double pidOutput_steer = (int32)(proportionalTerm_steer + cubicProportional_steer + integralTer
 757              		.loc 1 249 0
 758 01b6 244B     		ldr	r3, .L72+56
 759 01b8 D3E90023 		ldrd	r2, [r3]
 760 01bc DDE90001 		ldrd	r0, [sp]
 761 01c0 FFF7FEFF 		bl	__aeabi_dadd
 762              	.LVL102:
 763 01c4 0246     		mov	r2, r0
 764 01c6 0B46     		mov	r3, r1
 765 01c8 3046     		mov	r0, r6
 766 01ca 3946     		mov	r1, r7
 767 01cc FFF7FEFF 		bl	__aeabi_dadd
 768              	.LVL103:
 769 01d0 0246     		mov	r2, r0
 770 01d2 0B46     		mov	r3, r1
 771 01d4 4046     		mov	r0, r8
 772 01d6 4946     		mov	r1, r9
 773 01d8 FFF7FEFF 		bl	__aeabi_dadd
 774              	.LVL104:
 775 01dc FFF7FEFF 		bl	__aeabi_d2iz
ARM GAS  C:\Users\ianh\AppData\Local\Temp\cclTYTDN.s 			page 19


 776              	.LVL105:
 777 01e0 FFF7FEFF 		bl	__aeabi_i2d
 778              	.LVL106:
 779 01e4 0646     		mov	r6, r0
 780              	.LVL107:
 781 01e6 0F46     		mov	r7, r1
 782              	.LVL108:
 250:main.c        ****     
 251:main.c        ****     double leftSense = 1.4;
 252:main.c        ****     double leftIntercept = -50;
 253:main.c        ****     
 254:main.c        ****     if (pidOutput_steer < leftIntercept) {
 783              		.loc 1 254 0
 784 01e8 0022     		movs	r2, #0
 785 01ea 184B     		ldr	r3, .L72+60
 786 01ec FFF7FEFF 		bl	__aeabi_dcmplt
 787              	.LVL109:
 788 01f0 80B3     		cbz	r0, .L70
 255:main.c        ****         pidOutput_steer = leftSense * pidOutput_steer - leftIntercept*(leftSense-1)/2;
 789              		.loc 1 255 0
 790 01f2 0DA3     		adr	r3, .L72+24
 791 01f4 D3E90023 		ldrd	r2, [r3]
 792 01f8 3046     		mov	r0, r6
 793 01fa 3946     		mov	r1, r7
 794 01fc FFF7FEFF 		bl	__aeabi_dmul
 795              	.LVL110:
 796 0200 4FF0FF32 		mov	r2, #-1
 797 0204 124B     		ldr	r3, .L72+64
 798 0206 FFF7FEFF 		bl	__aeabi_dadd
 799              	.LVL111:
 800 020a 0646     		mov	r6, r0
 801              	.LVL112:
 802 020c 0F46     		mov	r7, r1
 803              	.LVL113:
 804 020e 3DE0     		b	.L55
 805              	.L73:
 806              		.align	3
 807              	.L72:
 808 0210 CDCCCCCC 		.word	-858993459
 809 0214 CCCCFC3F 		.word	1073532108
 810 0218 00000000 		.word	0
 811 021c 00FEAF40 		.word	1085275648
 812 0220 00000000 		.word	0
 813 0224 00407FC0 		.word	-1065402368
 814 0228 66666666 		.word	1717986918
 815 022c 6666F63F 		.word	1073112678
 816 0230 00000000 		.word	.LANCHOR0
 817 0234 00000000 		.word	avgRpm
 818 0238 00000000 		.word	.LANCHOR1
 819 023c 00009040 		.word	1083179008
 820 0240 000090C0 		.word	-1064304640
 821 0244 00407F40 		.word	1082081280
 822 0248 00000000 		.word	cubicProportional_steer
 823 024c 000049C0 		.word	-1068957696
 824 0250 FFFF2340 		.word	1076101119
 825              	.L70:
 256:main.c        ****     } else if (pidOutput_steer < 0) {
ARM GAS  C:\Users\ianh\AppData\Local\Temp\cclTYTDN.s 			page 20


 826              		.loc 1 256 0
 827 0254 0022     		movs	r2, #0
 828 0256 0023     		movs	r3, #0
 829 0258 3046     		mov	r0, r6
 830 025a 3946     		mov	r1, r7
 831 025c FFF7FEFF 		bl	__aeabi_dcmplt
 832              	.LVL114:
 833 0260 A0B1     		cbz	r0, .L55
 257:main.c        ****         pidOutput_steer = ((leftSense-1)/(2*leftIntercept)) * pidOutput_steer * pidOutput_steer + p
 834              		.loc 1 257 0
 835 0262 31A3     		adr	r3, .L74
 836 0264 D3E90023 		ldrd	r2, [r3]
 837 0268 3046     		mov	r0, r6
 838 026a 3946     		mov	r1, r7
 839 026c FFF7FEFF 		bl	__aeabi_dmul
 840              	.LVL115:
 841 0270 0246     		mov	r2, r0
 842 0272 0B46     		mov	r3, r1
 843 0274 3046     		mov	r0, r6
 844 0276 3946     		mov	r1, r7
 845 0278 FFF7FEFF 		bl	__aeabi_dmul
 846              	.LVL116:
 847 027c 0246     		mov	r2, r0
 848 027e 0B46     		mov	r3, r1
 849 0280 3046     		mov	r0, r6
 850 0282 3946     		mov	r1, r7
 851 0284 FFF7FEFF 		bl	__aeabi_dadd
 852              	.LVL117:
 853 0288 0646     		mov	r6, r0
 854              	.LVL118:
 855 028a 0F46     		mov	r7, r1
 856              	.LVL119:
 857              	.L55:
 258:main.c        ****     }
 259:main.c        ****     /*
 260:main.c        ****     if (pidOutput_steer < 0) {
 261:main.c        ****         pidOutput_steer *= leftSense;    
 262:main.c        ****     }
 263:main.c        ****     else if (pidOutput_steer > 0) {
 264:main.c        ****         pidOutput_steer -= rightSense*pidOutput_steer*pidOutput_steer;
 265:main.c        ****     }*/
 266:main.c        ****     
 267:main.c        ****     pidOutput_steer += 1500;
 858              		.loc 1 267 0
 859 028c 28A3     		adr	r3, .L74+8
 860 028e D3E90023 		ldrd	r2, [r3]
 861 0292 3046     		mov	r0, r6
 862 0294 3946     		mov	r1, r7
 863 0296 FFF7FEFF 		bl	__aeabi_dadd
 864              	.LVL120:
 865 029a 0646     		mov	r6, r0
 866              	.LVL121:
 867 029c 0F46     		mov	r7, r1
 868              	.LVL122:
 268:main.c        ****     
 269:main.c        ****     goalRpm = 450;
 270:main.c        ****     goalRpm -= abs((int32)currErr_steer)*1.2;
ARM GAS  C:\Users\ianh\AppData\Local\Temp\cclTYTDN.s 			page 21


 869              		.loc 1 270 0
 870 029e 2046     		mov	r0, r4
 871 02a0 2946     		mov	r1, r5
 872 02a2 FFF7FEFF 		bl	__aeabi_d2iz
 873              	.LVL123:
 874 02a6 0028     		cmp	r0, #0
 875 02a8 B8BF     		it	lt
 876 02aa 4042     		rsblt	r0, r0, #0
 877 02ac FFF7FEFF 		bl	__aeabi_i2d
 878              	.LVL124:
 879 02b0 4FF03332 		mov	r2, #858993459
 880 02b4 224B     		ldr	r3, .L74+24
 881 02b6 FFF7FEFF 		bl	__aeabi_dmul
 882              	.LVL125:
 883 02ba 0246     		mov	r2, r0
 884 02bc 0B46     		mov	r3, r1
 885 02be 1EA1     		adr	r1, .L74+16
 886 02c0 D1E90001 		ldrd	r0, [r1]
 887 02c4 FFF7FEFF 		bl	__aeabi_dsub
 888              	.LVL126:
 889 02c8 1E4B     		ldr	r3, .L74+28
 890 02ca C3E90401 		strd	r0, [r3, #16]
 271:main.c        ****     if (goalRpm < 320) {
 891              		.loc 1 271 0
 892 02ce 0022     		movs	r2, #0
 893 02d0 1D4B     		ldr	r3, .L74+32
 894 02d2 FFF7FEFF 		bl	__aeabi_dcmplt
 895              	.LVL127:
 896 02d6 20B1     		cbz	r0, .L57
 272:main.c        ****         goalRpm = 320;
 897              		.loc 1 272 0
 898 02d8 0020     		movs	r0, #0
 899 02da 1B49     		ldr	r1, .L74+32
 900 02dc 194B     		ldr	r3, .L74+28
 901 02de C3E90401 		strd	r0, [r3, #16]
 902              	.L57:
 273:main.c        ****     }
 274:main.c        ****     
 275:main.c        ****     // Store the previous error
 276:main.c        ****     lastErr_steer = currErr_steer;
 903              		.loc 1 276 0
 904 02e2 1A4B     		ldr	r3, .L74+36
 905 02e4 C3E90C45 		strd	r4, [r3, #48]
 277:main.c        ****     
 278:main.c        ****     //pidOutput_steer += 1500;
 279:main.c        ****     
 280:main.c        ****      // Bound the PID output
 281:main.c        ****     if (pidOutput_steer < 1000) {
 906              		.loc 1 281 0
 907 02e8 0022     		movs	r2, #0
 908 02ea 194B     		ldr	r3, .L74+40
 909 02ec 3046     		mov	r0, r6
 910 02ee 3946     		mov	r1, r7
 911 02f0 FFF7FEFF 		bl	__aeabi_dcmplt
 912              	.LVL128:
 913 02f4 38B9     		cbnz	r0, .L65
 282:main.c        ****         pidOutput_steer = 1000;
ARM GAS  C:\Users\ianh\AppData\Local\Temp\cclTYTDN.s 			page 22


 283:main.c        ****     } else if (pidOutput_steer > 2000) {
 914              		.loc 1 283 0
 915 02f6 0022     		movs	r2, #0
 916 02f8 164B     		ldr	r3, .L74+44
 917 02fa 3046     		mov	r0, r6
 918 02fc 3946     		mov	r1, r7
 919 02fe FFF7FEFF 		bl	__aeabi_dcmpgt
 920              	.LVL129:
 921 0302 18B9     		cbnz	r0, .L66
 922 0304 04E0     		b	.L59
 923              	.L65:
 282:main.c        ****         pidOutput_steer = 1000;
 924              		.loc 1 282 0
 925 0306 0026     		movs	r6, #0
 926              	.LVL130:
 927 0308 114F     		ldr	r7, .L74+40
 928 030a 01E0     		b	.L59
 929              	.LVL131:
 930              	.L66:
 284:main.c        ****         pidOutput_steer = 2000;
 931              		.loc 1 284 0
 932 030c 0026     		movs	r6, #0
 933              	.LVL132:
 934 030e 114F     		ldr	r7, .L74+44
 935              	.L59:
 936              	.LVL133:
 285:main.c        ****     }
 286:main.c        ****     
 287:main.c        ****     // char buf[128];
 288:main.c        ****     // sprintf(buf, "err = %5ld ; cube = %5ld ; output = %4ld\r\n", (int32)currErr_steer, (int32)cu
 289:main.c        ****     // XBee_PutString(buf);
 290:main.c        ****     
 291:main.c        ****     // Update the steering as a result of the PID
 292:main.c        ****     Servo_PWM_WriteCompare(pidOutput_steer);
 937              		.loc 1 292 0
 938 0310 3046     		mov	r0, r6
 939 0312 3946     		mov	r1, r7
 940 0314 FFF7FEFF 		bl	__aeabi_d2uiz
 941              	.LVL134:
 942 0318 80B2     		uxth	r0, r0
 943 031a FFF7FEFF 		bl	Servo_PWM_WriteCompare
 944              	.LVL135:
 293:main.c        **** }
 945              		.loc 1 293 0
 946 031e 05B0     		add	sp, sp, #20
 947              		.cfi_def_cfa_offset 36
 948              	.LVL136:
 949              		@ sp needed
 950 0320 BDE8F08F 		pop	{r4, r5, r6, r7, r8, r9, r10, fp, pc}
 951              	.LVL137:
 952              	.L75:
 953 0324 AFF30080 		.align	3
 954              	.L74:
 955 0328 FBA9F1D2 		.word	-755914245
 956 032c 4D6270BF 		.word	-1083153843
 957 0330 00000000 		.word	0
 958 0334 00709740 		.word	1083666432
ARM GAS  C:\Users\ianh\AppData\Local\Temp\cclTYTDN.s 			page 23


 959 0338 00000000 		.word	0
 960 033c 00207C40 		.word	1081876480
 961 0340 3333F33F 		.word	1072902963
 962 0344 00000000 		.word	.LANCHOR1
 963 0348 00007440 		.word	1081344000
 964 034c 00000000 		.word	.LANCHOR0
 965 0350 00408F40 		.word	1083129856
 966 0354 00409F40 		.word	1084178432
 967              		.cfi_endproc
 968              	.LFE72:
 969              		.size	pid_int, .-pid_int
 970              		.section	.text.main,"ax",%progbits
 971              		.align	2
 972              		.global	main
 973              		.thumb
 974              		.thumb_func
 975              		.type	main, %function
 976              	main:
 977              	.LFB73:
 294:main.c        **** 
 295:main.c        **** int main(void)
 296:main.c        **** {
 978              		.loc 1 296 0
 979              		.cfi_startproc
 980              		@ args = 0, pretend = 0, frame = 0
 981              		@ frame_needed = 0, uses_anonymous_args = 0
 982 0000 08B5     		push	{r3, lr}
 983              		.cfi_def_cfa_offset 8
 984              		.cfi_offset 3, -8
 985              		.cfi_offset 14, -4
 297:main.c        ****     // Servo PWM
 298:main.c        ****     Servo_PWM_Start();
 986              		.loc 1 298 0
 987 0002 FFF7FEFF 		bl	Servo_PWM_Start
 988              	.LVL138:
 989              	.LBB2:
 299:main.c        ****     
 300:main.c        ****     // Stall the MCU with useless operations so that the servo has enough time to set up
 301:main.c        ****     int j = 112;
 302:main.c        ****     for (int i=0; i<1234567; i++) {
 990              		.loc 1 302 0
 991 0006 0022     		movs	r2, #0
 992              	.LBE2:
 301:main.c        ****     for (int i=0; i<1234567; i++) {
 993              		.loc 1 301 0
 994 0008 7023     		movs	r3, #112
 995              	.LBB3:
 996              		.loc 1 302 0
 997 000a 08E0     		b	.L77
 998              	.LVL139:
 999              	.L80:
 303:main.c        ****         if (j & 1) j = 3 * j + 1;
 1000              		.loc 1 303 0
 1001 000c 13F0010F 		tst	r3, #1
 1002 0010 03D0     		beq	.L78
 1003              		.loc 1 303 0 is_stmt 0 discriminator 1
 1004 0012 03EB4303 		add	r3, r3, r3, lsl #1
ARM GAS  C:\Users\ianh\AppData\Local\Temp\cclTYTDN.s 			page 24


 1005              	.LVL140:
 1006 0016 0133     		adds	r3, r3, #1
 1007              	.LVL141:
 1008 0018 00E0     		b	.L79
 1009              	.L78:
 304:main.c        ****         else j >>= 1;
 1010              		.loc 1 304 0 is_stmt 1
 1011 001a 5B10     		asrs	r3, r3, #1
 1012              	.LVL142:
 1013              	.L79:
 302:main.c        ****         if (j & 1) j = 3 * j + 1;
 1014              		.loc 1 302 0 discriminator 2
 1015 001c 0132     		adds	r2, r2, #1
 1016              	.LVL143:
 1017              	.L77:
 302:main.c        ****         if (j & 1) j = 3 * j + 1;
 1018              		.loc 1 302 0 is_stmt 0 discriminator 1
 1019 001e 2A49     		ldr	r1, .L83
 1020 0020 8A42     		cmp	r2, r1
 1021 0022 F3DD     		ble	.L80
 1022              	.LBE3:
 305:main.c        ****     }
 306:main.c        ****     
 307:main.c        ****     CyGlobalIntEnable; /* Enable global interrupts. */
 1023              		.loc 1 307 0 is_stmt 1
 1024              		.syntax unified
 1025              	@ 307 "main.c" 1
 1026 0024 62B6     		CPSIE   i
 1027              	@ 0 "" 2
 308:main.c        **** 
 309:main.c        ****     // Start the LCD
 310:main.c        ****     initLCD();
 1028              		.loc 1 310 0
 1029              		.thumb
 1030              		.syntax unified
 1031 0026 FFF7FEFF 		bl	initLCD
 1032              	.LVL144:
 311:main.c        ****     
 312:main.c        ****     //XBee_Start();
 313:main.c        ****     //XBee_PutString("\r\nStart!\r\n");
 314:main.c        ****     
 315:main.c        ****     // Frame interrupt
 316:main.c        ****     Frame_Interrupt_Start();
 1033              		.loc 1 316 0
 1034 002a FFF7FEFF 		bl	Frame_Interrupt_Start
 1035              	.LVL145:
 317:main.c        ****     Frame_Interrupt_SetVector(frame_int);
 1036              		.loc 1 317 0
 1037 002e 2748     		ldr	r0, .L83+4
 1038 0030 FFF7FEFF 		bl	Frame_Interrupt_SetVector
 1039              	.LVL146:
 318:main.c        ****     
 319:main.c        ****     // Dark interrupts
 320:main.c        ****     Analog_CMP_Start();
 1040              		.loc 1 320 0
 1041 0034 FFF7FEFF 		bl	Analog_CMP_Start
 1042              	.LVL147:
ARM GAS  C:\Users\ianh\AppData\Local\Temp\cclTYTDN.s 			page 25


 321:main.c        ****     Reference_Start();
 1043              		.loc 1 321 0
 1044 0038 FFF7FEFF 		bl	Reference_Start
 1045              	.LVL148:
 322:main.c        ****     
 323:main.c        ****     // Line 50
 324:main.c        ****     Dark_Timer_50_Start();
 1046              		.loc 1 324 0
 1047 003c FFF7FEFF 		bl	Dark_Timer_50_Start
 1048              	.LVL149:
 325:main.c        ****     Dark_Int_50_Start();
 1049              		.loc 1 325 0
 1050 0040 FFF7FEFF 		bl	Dark_Int_50_Start
 1051              	.LVL150:
 326:main.c        ****     Dark_Int_50_SetVector(dark_int_50);
 1052              		.loc 1 326 0
 1053 0044 2248     		ldr	r0, .L83+8
 1054 0046 FFF7FEFF 		bl	Dark_Int_50_SetVector
 1055              	.LVL151:
 327:main.c        ****     filterResize(&darkFilter50, 3);
 1056              		.loc 1 327 0
 1057 004a 0321     		movs	r1, #3
 1058 004c 2148     		ldr	r0, .L83+12
 1059 004e FFF7FEFF 		bl	filterResize
 1060              	.LVL152:
 328:main.c        ****     
 329:main.c        ****     // Line 100
 330:main.c        ****     Dark_Timer_100_Start();
 1061              		.loc 1 330 0
 1062 0052 FFF7FEFF 		bl	Dark_Timer_100_Start
 1063              	.LVL153:
 331:main.c        ****     Dark_Int_100_Start();
 1064              		.loc 1 331 0
 1065 0056 FFF7FEFF 		bl	Dark_Int_100_Start
 1066              	.LVL154:
 332:main.c        ****     Dark_Int_100_SetVector(dark_int_100);
 1067              		.loc 1 332 0
 1068 005a 1F48     		ldr	r0, .L83+16
 1069 005c FFF7FEFF 		bl	Dark_Int_100_SetVector
 1070              	.LVL155:
 333:main.c        ****     filterResize(&darkFilter100, 3);
 1071              		.loc 1 333 0
 1072 0060 0321     		movs	r1, #3
 1073 0062 1E48     		ldr	r0, .L83+20
 1074 0064 FFF7FEFF 		bl	filterResize
 1075              	.LVL156:
 334:main.c        ****     
 335:main.c        ****     // Line 150
 336:main.c        ****     Dark_Timer_150_Start();
 1076              		.loc 1 336 0
 1077 0068 FFF7FEFF 		bl	Dark_Timer_150_Start
 1078              	.LVL157:
 337:main.c        ****     Dark_Int_150_Start();
 1079              		.loc 1 337 0
 1080 006c FFF7FEFF 		bl	Dark_Int_150_Start
 1081              	.LVL158:
 338:main.c        ****     Dark_Int_150_SetVector(dark_int_150);
ARM GAS  C:\Users\ianh\AppData\Local\Temp\cclTYTDN.s 			page 26


 1082              		.loc 1 338 0
 1083 0070 1B48     		ldr	r0, .L83+24
 1084 0072 FFF7FEFF 		bl	Dark_Int_150_SetVector
 1085              	.LVL159:
 339:main.c        ****     filterResize(&darkFilter150, 3);
 1086              		.loc 1 339 0
 1087 0076 0321     		movs	r1, #3
 1088 0078 1A48     		ldr	r0, .L83+28
 1089 007a FFF7FEFF 		bl	filterResize
 1090              	.LVL160:
 340:main.c        ****     
 341:main.c        ****     // Hall sensor interrupt
 342:main.c        ****     Hall_Interrupt_Start();
 1091              		.loc 1 342 0
 1092 007e FFF7FEFF 		bl	Hall_Interrupt_Start
 1093              	.LVL161:
 343:main.c        ****     Hall_Timer_Start();
 1094              		.loc 1 343 0
 1095 0082 FFF7FEFF 		bl	Hall_Timer_Start
 1096              	.LVL162:
 344:main.c        ****     Hall_Interrupt_SetVector(hall_int);
 1097              		.loc 1 344 0
 1098 0086 1848     		ldr	r0, .L83+32
 1099 0088 FFF7FEFF 		bl	Hall_Interrupt_SetVector
 1100              	.LVL163:
 345:main.c        ****     filterResize(&hallFilter, 5);
 1101              		.loc 1 345 0
 1102 008c 0521     		movs	r1, #5
 1103 008e 1748     		ldr	r0, .L83+36
 1104 0090 FFF7FEFF 		bl	filterResize
 1105              	.LVL164:
 346:main.c        ****     
 347:main.c        ****     // Target row interrupt
 348:main.c        ****     Target_Int_50_Start();
 1106              		.loc 1 348 0
 1107 0094 FFF7FEFF 		bl	Target_Int_50_Start
 1108              	.LVL165:
 349:main.c        ****     Target_Int_50_SetVector(target_int_50);
 1109              		.loc 1 349 0
 1110 0098 1548     		ldr	r0, .L83+40
 1111 009a FFF7FEFF 		bl	Target_Int_50_SetVector
 1112              	.LVL166:
 350:main.c        ****     Target_Int_100_Start();
 1113              		.loc 1 350 0
 1114 009e FFF7FEFF 		bl	Target_Int_100_Start
 1115              	.LVL167:
 351:main.c        ****     Target_Int_100_SetVector(target_int_100);
 1116              		.loc 1 351 0
 1117 00a2 1448     		ldr	r0, .L83+44
 1118 00a4 FFF7FEFF 		bl	Target_Int_100_SetVector
 1119              	.LVL168:
 352:main.c        ****     Target_Int_150_Start();
 1120              		.loc 1 352 0
 1121 00a8 FFF7FEFF 		bl	Target_Int_150_Start
 1122              	.LVL169:
 353:main.c        ****     Target_Int_150_SetVector(target_int_150);
 1123              		.loc 1 353 0
ARM GAS  C:\Users\ianh\AppData\Local\Temp\cclTYTDN.s 			page 27


 1124 00ac 1248     		ldr	r0, .L83+48
 1125 00ae FFF7FEFF 		bl	Target_Int_150_SetVector
 1126              	.LVL170:
 354:main.c        ****     
 355:main.c        ****     // Throttle PWM
 356:main.c        ****     Throttle_PWM_Start();
 1127              		.loc 1 356 0
 1128 00b2 FFF7FEFF 		bl	Throttle_PWM_Start
 1129              	.LVL171:
 357:main.c        ****     
 358:main.c        ****     // PID ISR
 359:main.c        ****     PID_Timer_Start();
 1130              		.loc 1 359 0
 1131 00b6 FFF7FEFF 		bl	PID_Timer_Start
 1132              	.LVL172:
 360:main.c        ****     PID_Interrupt_Start();
 1133              		.loc 1 360 0
 1134 00ba FFF7FEFF 		bl	PID_Interrupt_Start
 1135              	.LVL173:
 361:main.c        ****     PID_Interrupt_SetVector(pid_int);
 1136              		.loc 1 361 0
 1137 00be 0F48     		ldr	r0, .L83+52
 1138 00c0 FFF7FEFF 		bl	PID_Interrupt_SetVector
 1139              	.LVL174:
 1140              	.L81:
 1141 00c4 FEE7     		b	.L81
 1142              	.L84:
 1143 00c6 00BF     		.align	2
 1144              	.L83:
 1145 00c8 86D61200 		.word	1234566
 1146 00cc 00000000 		.word	frame_int
 1147 00d0 00000000 		.word	dark_int_50
 1148 00d4 00000000 		.word	darkFilter50
 1149 00d8 00000000 		.word	dark_int_100
 1150 00dc 00000000 		.word	darkFilter100
 1151 00e0 00000000 		.word	dark_int_150
 1152 00e4 00000000 		.word	darkFilter150
 1153 00e8 00000000 		.word	hall_int
 1154 00ec 00000000 		.word	hallFilter
 1155 00f0 00000000 		.word	target_int_50
 1156 00f4 00000000 		.word	target_int_100
 1157 00f8 00000000 		.word	target_int_150
 1158 00fc 00000000 		.word	pid_int
 1159              		.cfi_endproc
 1160              	.LFE73:
 1161              		.size	main, .-main
 1162              		.comm	cubicProportional_steer,8,8
 1163              		.global	pid_period
 1164              		.global	kd_steer
 1165              		.global	ki_steer
 1166              		.global	kp_steer
 1167              		.global	goalDarkTime
 1168              		.global	sumErr_steer
 1169              		.global	lastErr_steer
 1170              		.global	kd_speed
 1171              		.global	ki_speed
 1172              		.global	kp_speed
ARM GAS  C:\Users\ianh\AppData\Local\Temp\cclTYTDN.s 			page 28


 1173              		.global	goalRpm
 1174              		.global	sumErr_speed
 1175              		.global	lastErr_speed
 1176              		.global	timeOutCounter
 1177              		.global	darkTimeOverall
 1178              		.comm	darkTime150,8,8
 1179              		.comm	darkTime100,8,8
 1180              		.comm	darkTime50,8,8
 1181              		.comm	avgRpm,8,8
 1182              		.global	lastHallTime
 1183              		.comm	hallFilter,532,4
 1184              		.comm	darkFilter150,532,4
 1185              		.comm	darkFilter100,532,4
 1186              		.comm	darkFilter50,532,4
 1187              		.global	numFrames
 1188              		.data
 1189              		.align	3
 1190              		.set	.LANCHOR1,. + 0
 1191              		.type	darkTimeOverall, %object
 1192              		.size	darkTimeOverall, 8
 1193              	darkTimeOverall:
 1194 0000 00000000 		.word	0
 1195 0004 00A07440 		.word	1081384960
 1196              		.type	lastHallTime, %object
 1197              		.size	lastHallTime, 4
 1198              	lastHallTime:
 1199 0008 FFFFFFFF 		.word	-1
 1200 000c 00000000 		.space	4
 1201              		.type	goalRpm, %object
 1202              		.size	goalRpm, 8
 1203              	goalRpm:
 1204 0010 00000000 		.word	0
 1205 0014 00407A40 		.word	1081753600
 1206              		.type	ki_speed, %object
 1207              		.size	ki_speed, 8
 1208              	ki_speed:
 1209 0018 00000000 		.word	0
 1210 001c 00000040 		.word	1073741824
 1211              		.type	pid_period, %object
 1212              		.size	pid_period, 8
 1213              	pid_period:
 1214 0020 7B14AE47 		.word	1202590843
 1215 0024 E17A943F 		.word	1066695393
 1216              		.type	kp_speed, %object
 1217              		.size	kp_speed, 8
 1218              	kp_speed:
 1219 0028 00000000 		.word	0
 1220 002c 00000040 		.word	1073741824
 1221              		.type	goalDarkTime, %object
 1222              		.size	goalDarkTime, 8
 1223              	goalDarkTime:
 1224 0030 00000000 		.word	0
 1225 0034 00A07440 		.word	1081384960
 1226              		.type	kp_steer, %object
 1227              		.size	kp_steer, 8
 1228              	kp_steer:
 1229 0038 EC51B81E 		.word	515396076
ARM GAS  C:\Users\ianh\AppData\Local\Temp\cclTYTDN.s 			page 29


 1230 003c 85EBF13F 		.word	1072819077
 1231              		.type	kd_steer, %object
 1232              		.size	kd_steer, 8
 1233              	kd_steer:
 1234 0040 B81E85EB 		.word	-343597384
 1235 0044 51B8AE3F 		.word	1068415057
 1236              		.bss
 1237              		.align	3
 1238              		.set	.LANCHOR0,. + 0
 1239              		.type	numFrames, %object
 1240              		.size	numFrames, 4
 1241              	numFrames:
 1242 0000 00000000 		.space	4
 1243              		.type	timeOutCounter, %object
 1244              		.size	timeOutCounter, 4
 1245              	timeOutCounter:
 1246 0004 00000000 		.space	4
 1247              		.type	sumErr_speed, %object
 1248              		.size	sumErr_speed, 8
 1249              	sumErr_speed:
 1250 0008 00000000 		.space	8
 1250      00000000 
 1251              		.type	lastErr_speed, %object
 1252              		.size	lastErr_speed, 8
 1253              	lastErr_speed:
 1254 0010 00000000 		.space	8
 1254      00000000 
 1255              		.type	kd_speed, %object
 1256              		.size	kd_speed, 8
 1257              	kd_speed:
 1258 0018 00000000 		.space	8
 1258      00000000 
 1259              		.type	sumErr_steer, %object
 1260              		.size	sumErr_steer, 8
 1261              	sumErr_steer:
 1262 0020 00000000 		.space	8
 1262      00000000 
 1263              		.type	ki_steer, %object
 1264              		.size	ki_steer, 8
 1265              	ki_steer:
 1266 0028 00000000 		.space	8
 1266      00000000 
 1267              		.type	lastErr_steer, %object
 1268              		.size	lastErr_steer, 8
 1269              	lastErr_steer:
 1270 0030 00000000 		.space	8
 1270      00000000 
 1271              		.text
 1272              	.Letext0:
 1273              		.file 2 "c:\\program files (x86)\\cypress\\psoc creator\\4.4\\psoc creator\\import\\gnu\\arm\\5.4.
 1274              		.file 3 "c:\\program files (x86)\\cypress\\psoc creator\\4.4\\psoc creator\\import\\gnu\\arm\\5.4.
 1275              		.file 4 "Generated_Source\\PSoC5/cytypes.h"
 1276              		.file 5 "lp_filter.h"
 1277              		.file 6 "Generated_Source\\PSoC5/core_cm3.h"
 1278              		.file 7 "Generated_Source\\PSoC5/Dark_Timer_50.h"
 1279              		.file 8 "Generated_Source\\PSoC5/Dark_Timer_100.h"
 1280              		.file 9 "Generated_Source\\PSoC5/Dark_Timer_150.h"
ARM GAS  C:\Users\ianh\AppData\Local\Temp\cclTYTDN.s 			page 30


 1281              		.file 10 "lcd_functions.h"
 1282              		.file 11 "Generated_Source\\PSoC5/Hall_Timer.h"
 1283              		.file 12 "Generated_Source\\PSoC5/Throttle_PWM.h"
 1284              		.file 13 "Generated_Source\\PSoC5/Servo_PWM.h"
 1285              		.file 14 "Generated_Source\\PSoC5/Frame_Interrupt.h"
 1286              		.file 15 "Generated_Source\\PSoC5/Analog_CMP.h"
 1287              		.file 16 "Generated_Source\\PSoC5/Reference.h"
 1288              		.file 17 "Generated_Source\\PSoC5/Dark_Int_50.h"
 1289              		.file 18 "Generated_Source\\PSoC5/Dark_Int_100.h"
 1290              		.file 19 "Generated_Source\\PSoC5/Dark_Int_150.h"
 1291              		.file 20 "Generated_Source\\PSoC5/Hall_Interrupt.h"
 1292              		.file 21 "Generated_Source\\PSoC5/Target_Int_50.h"
 1293              		.file 22 "Generated_Source\\PSoC5/Target_Int_100.h"
 1294              		.file 23 "Generated_Source\\PSoC5/Target_Int_150.h"
 1295              		.file 24 "Generated_Source\\PSoC5/PID_Timer.h"
 1296              		.file 25 "Generated_Source\\PSoC5/PID_Interrupt.h"